target datalayout = "e-m:e-p270:32:32-p271:32:32-p272:64:64-i64:64-i128:128-f80:128-n8:16:32:64-S128"
target triple = "x86_64-pc-linux-gnu"

%struct.Abc_Ntk_t_ = type { i32, i32, ptr, ptr, ptr, ptr, ptr, ptr, ptr, ptr, ptr, ptr, ptr, [11 x i32], i32, i32, i32, i32, ptr, i32, ptr, ptr, i32, i32, i32, double, i32, %struct.Vec_Int_t_, ptr, ptr, ptr, ptr, ptr, float, i32, ptr, ptr, ptr, ptr, ptr, ptr, ptr, ptr, ptr, ptr, ptr, ptr, ptr, ptr, ptr, ptr, ptr, ptr, ptr, ptr, ptr, ptr }
%struct.Vec_Int_t_ = type { i32, i32, ptr }
%struct.Abc_Obj_t_ = type { ptr, ptr, i32, i32, %struct.Vec_Int_t_, %struct.Vec_Int_t_, %union.anon, %union.anon.0 }
%union.anon = type { ptr }
%union.anon.0 = type { ptr }

@.str.8 = private unnamed_addr constant [13 x i8] c"11- 1\0A0-1 1\0A\00", align 1

; Function Attrs: inlinehint nounwind uwtable
define internal i32 @Abc_NtkHasAig(ptr noundef %0) #6 {
  %2 = alloca ptr, align 8
  store ptr %0, ptr %2, align 8, !tbaa !3
  %3 = load ptr, ptr %2, align 8, !tbaa !3
  %4 = getelementptr inbounds nuw %struct.Abc_Ntk_t_, ptr %3, i32 0, i32 1
  %5 = load i32, ptr %4, align 4, !tbaa !55
  %6 = icmp eq i32 %5, 3
  %7 = zext i1 %6 to i32
  ret i32 %7
}

; Function Attrs: inlinehint nounwind uwtable
define internal i32 @Abc_NtkHasBdd(ptr noundef %0) #6 {
  %2 = alloca ptr, align 8
  store ptr %0, ptr %2, align 8, !tbaa !3
  %3 = load ptr, ptr %2, align 8, !tbaa !3
  %4 = getelementptr inbounds nuw %struct.Abc_Ntk_t_, ptr %3, i32 0, i32 1
  %5 = load i32, ptr %4, align 4, !tbaa !55
  %6 = icmp eq i32 %5, 2
  %7 = zext i1 %6 to i32
  ret i32 %7
}

; Function Attrs: inlinehint nounwind uwtable
define internal i32 @Abc_NtkHasSop(ptr noundef %0) #6 {
  %2 = alloca ptr, align 8
  store ptr %0, ptr %2, align 8, !tbaa !3
  %3 = load ptr, ptr %2, align 8, !tbaa !3
  %4 = getelementptr inbounds nuw %struct.Abc_Ntk_t_, ptr %3, i32 0, i32 1
  %5 = load i32, ptr %4, align 4, !tbaa !55
  %6 = icmp eq i32 %5, 1
  %7 = zext i1 %6 to i32
  ret i32 %7
}

; Function Attrs: inlinehint nounwind uwtable
define internal ptr @Abc_NtkCreateNode(ptr noundef %0) #6 {
  %2 = alloca ptr, align 8
  store ptr %0, ptr %2, align 8, !tbaa !3
  %3 = load ptr, ptr %2, align 8, !tbaa !3
  %4 = call ptr @Abc_NtkCreateObj(ptr noundef %3, i32 noundef 7)
  ret ptr %4
}

; Function Attrs: nounwind uwtable
define ptr @Abc_NtkCreateNodeMux(ptr noundef %0, ptr noundef %1, ptr noundef %2, ptr noundef %3) #0 {
  %5 = alloca ptr, align 8
  %6 = alloca ptr, align 8
  %7 = alloca ptr, align 8
  %8 = alloca ptr, align 8
  %9 = alloca ptr, align 8
  store ptr %0, ptr %5, align 8, !tbaa !3
  store ptr %1, ptr %6, align 8, !tbaa !26
  store ptr %2, ptr %7, align 8, !tbaa !26
  store ptr %3, ptr %8, align 8, !tbaa !26
  call void @llvm.lifetime.start.p0(i64 8, ptr %9) #9
  %10 = load ptr, ptr %5, align 8, !tbaa !3
  %11 = call ptr @Abc_NtkCreateNode(ptr noundef %10)
  store ptr %11, ptr %9, align 8, !tbaa !26
  %12 = load ptr, ptr %9, align 8, !tbaa !26
  %13 = load ptr, ptr %6, align 8, !tbaa !26
  call void @Abc_ObjAddFanin(ptr noundef %12, ptr noundef %13)
  %14 = load ptr, ptr %9, align 8, !tbaa !26
  %15 = load ptr, ptr %7, align 8, !tbaa !26
  call void @Abc_ObjAddFanin(ptr noundef %14, ptr noundef %15)
  %16 = load ptr, ptr %9, align 8, !tbaa !26
  %17 = load ptr, ptr %8, align 8, !tbaa !26
  call void @Abc_ObjAddFanin(ptr noundef %16, ptr noundef %17)
  %18 = load ptr, ptr %5, align 8, !tbaa !3
  %19 = call i32 @Abc_NtkHasSop(ptr noundef %18)
  %20 = icmp ne i32 %19, 0
  br i1 %20, label %21, label %28

21:                                               ; preds = %4
  %22 = load ptr, ptr %5, align 8, !tbaa !3
  %23 = getelementptr inbounds nuw %struct.Abc_Ntk_t_, ptr %22, i32 0, i32 30
  %24 = load ptr, ptr %23, align 8, !tbaa !52
  %25 = call ptr @Abc_SopRegister(ptr noundef %24, ptr noundef @.str.8)
  %26 = load ptr, ptr %9, align 8, !tbaa !26
  %27 = getelementptr inbounds nuw %struct.Abc_Obj_t_, ptr %26, i32 0, i32 6
  store ptr %25, ptr %27, align 8, !tbaa !42
  br label %80

28:                                               ; preds = %4
  %29 = load ptr, ptr %5, align 8, !tbaa !3
  %30 = call i32 @Abc_NtkHasBdd(ptr noundef %29)
  %31 = icmp ne i32 %30, 0
  br i1 %31, label %32, label %54

32:                                               ; preds = %28
  %33 = load ptr, ptr %5, align 8, !tbaa !3
  %34 = getelementptr inbounds nuw %struct.Abc_Ntk_t_, ptr %33, i32 0, i32 30
  %35 = load ptr, ptr %34, align 8, !tbaa !52
  %36 = load ptr, ptr %5, align 8, !tbaa !3
  %37 = getelementptr inbounds nuw %struct.Abc_Ntk_t_, ptr %36, i32 0, i32 30
  %38 = load ptr, ptr %37, align 8, !tbaa !52
  %39 = call ptr @Cudd_bddIthVar(ptr noundef %38, i32 noundef 0)
  %40 = load ptr, ptr %5, align 8, !tbaa !3
  %41 = getelementptr inbounds nuw %struct.Abc_Ntk_t_, ptr %40, i32 0, i32 30
  %42 = load ptr, ptr %41, align 8, !tbaa !52
  %43 = call ptr @Cudd_bddIthVar(ptr noundef %42, i32 noundef 1)
  %44 = load ptr, ptr %5, align 8, !tbaa !3
  %45 = getelementptr inbounds nuw %struct.Abc_Ntk_t_, ptr %44, i32 0, i32 30
  %46 = load ptr, ptr %45, align 8, !tbaa !52
  %47 = call ptr @Cudd_bddIthVar(ptr noundef %46, i32 noundef 2)
  %48 = call ptr @Cudd_bddIte(ptr noundef %35, ptr noundef %39, ptr noundef %43, ptr noundef %47)
  %49 = load ptr, ptr %9, align 8, !tbaa !26
  %50 = getelementptr inbounds nuw %struct.Abc_Obj_t_, ptr %49, i32 0, i32 6
  store ptr %48, ptr %50, align 8, !tbaa !42
  %51 = load ptr, ptr %9, align 8, !tbaa !26
  %52 = getelementptr inbounds nuw %struct.Abc_Obj_t_, ptr %51, i32 0, i32 6
  %53 = load ptr, ptr %52, align 8, !tbaa !42
  call void @Cudd_Ref(ptr noundef %53)
  br label %79

54:                                               ; preds = %28
  %55 = load ptr, ptr %5, align 8, !tbaa !3
  %56 = call i32 @Abc_NtkHasAig(ptr noundef %55)
  %57 = icmp ne i32 %56, 0
  br i1 %57, label %58, label %77

58:                                               ; preds = %54
  %59 = load ptr, ptr %5, align 8, !tbaa !3
  %60 = getelementptr inbounds nuw %struct.Abc_Ntk_t_, ptr %59, i32 0, i32 30
  %61 = load ptr, ptr %60, align 8, !tbaa !52
  %62 = load ptr, ptr %5, align 8, !tbaa !3
  %63 = getelementptr inbounds nuw %struct.Abc_Ntk_t_, ptr %62, i32 0, i32 30
  %64 = load ptr, ptr %63, align 8, !tbaa !52
  %65 = call ptr @Hop_IthVar(ptr noundef %64, i32 noundef 0)
  %66 = load ptr, ptr %5, align 8, !tbaa !3
  %67 = getelementptr inbounds nuw %struct.Abc_Ntk_t_, ptr %66, i32 0, i32 30
  %68 = load ptr, ptr %67, align 8, !tbaa !52
  %69 = call ptr @Hop_IthVar(ptr noundef %68, i32 noundef 1)
  %70 = load ptr, ptr %5, align 8, !tbaa !3
  %71 = getelementptr inbounds nuw %struct.Abc_Ntk_t_, ptr %70, i32 0, i32 30
  %72 = load ptr, ptr %71, align 8, !tbaa !52
  %73 = call ptr @Hop_IthVar(ptr noundef %72, i32 noundef 2)
  %74 = call ptr @Hop_Mux(ptr noundef %61, ptr noundef %65, ptr noundef %69, ptr noundef %73)
  %75 = load ptr, ptr %9, align 8, !tbaa !26
  %76 = getelementptr inbounds nuw %struct.Abc_Obj_t_, ptr %75, i32 0, i32 6
  store ptr %74, ptr %76, align 8, !tbaa !42
  br label %78

77:                                               ; preds = %54
  br label %78

78:                                               ; preds = %77, %58
  br label %79

79:                                               ; preds = %78, %32
  br label %80

80:                                               ; preds = %79, %21
  %81 = load ptr, ptr %9, align 8, !tbaa !26
  call void @llvm.lifetime.end.p0(i64 8, ptr %9) #9
  ret ptr %81
}